target datalayout = "e-m:e-p270:32:32-p271:32:32-p272:64:64-i64:64-i128:128-f80:128-n8:16:32:64-S128"
target triple = "x86_64-unknown-linux-gnu"

%"class.proxygen::GenericFilter" = type { %"class.proxygen::HTTPCodec", %"class.proxygen::HTTPCodec::Callback", i8, i8, ptr, ptr, ptr, ptr, ptr, ptr }
%"class.proxygen::HTTPCodec" = type { ptr }
%"class.proxygen::HTTPCodec::Callback" = type { ptr }
%"struct.proxygen::HTTPPriority" = type { ptr, i64 }

@_ZTVN8proxygen12HTTPPriorityE = linkonce_odr unnamed_addr constant { [4 x ptr] } { [4 x ptr] [ptr null, ptr @_ZTIN8proxygen12HTTPPriorityE, ptr @_ZN8proxygen12HTTPPriorityD2Ev, ptr @_ZN8proxygen12HTTPPriorityD0Ev] }, comdat, align 8

; Function Attrs: mustprogress nounwind uwtable
define linkonce_odr void @_ZN8proxygen12HTTPPriorityD2Ev(ptr noundef nonnull align 8 dereferenceable(16) %this) unnamed_addr #5 comdat align 2 {
entry:
  %this.addr = alloca ptr, align 8
  store ptr %this, ptr %this.addr, align 8
  ret void
}

; Function Attrs: mustprogress nounwind uwtable
define linkonce_odr void @_ZN8proxygen12HTTPPriorityC2ERKS0_(ptr noundef nonnull align 8 dereferenceable(16) %this, ptr noundef nonnull align 8 dereferenceable(16) %0) unnamed_addr #5 comdat align 2 {
entry:
  %this.addr = alloca ptr, align 8
  %.addr = alloca ptr, align 8
  store ptr %this, ptr %this.addr, align 8
  store ptr %0, ptr %.addr, align 8
  %this1 = load ptr, ptr %this.addr, align 8
  store ptr getelementptr inbounds ({ [4 x ptr] }, ptr @_ZTVN8proxygen12HTTPPriorityE, i32 0, i32 0, i32 2), ptr %this1, align 8
  %urgency = getelementptr inbounds %"struct.proxygen::HTTPPriority", ptr %this1, i32 0, i32 1
  %1 = load ptr, ptr %.addr, align 8
  %urgency2 = getelementptr inbounds %"struct.proxygen::HTTPPriority", ptr %1, i32 0, i32 1
  call void @llvm.memcpy.p0.p0.i64(ptr align 8 %urgency, ptr align 8 %urgency2, i64 8, i1 false)
  ret void
}

; Function Attrs: mustprogress uwtable
define noundef i64 @_ZN8proxygen26PassThroughHTTPCodecFilter16generatePriorityERN5folly10IOBufQueueEmNS_12HTTPPriorityE(ptr noundef nonnull align 8 dereferenceable(72) %this, ptr noundef nonnull align 8 dereferenceable(72) %writeBuf, i64 noundef %streamId, ptr noundef %priority) unnamed_addr #4 align 2 personality ptr @__gxx_personality_v0 {
entry:
  %this.addr = alloca ptr, align 8
  %writeBuf.addr = alloca ptr, align 8
  %streamId.addr = alloca i64, align 8
  %priority.indirect_addr = alloca ptr, align 8
  %agg.tmp = alloca %"struct.proxygen::HTTPPriority", align 8
  %exn.slot = alloca ptr, align 8
  %ehselector.slot = alloca i32, align 4
  store ptr %this, ptr %this.addr, align 8
  store ptr %writeBuf, ptr %writeBuf.addr, align 8
  store i64 %streamId, ptr %streamId.addr, align 8
  store ptr %priority, ptr %priority.indirect_addr, align 8
  %this1 = load ptr, ptr %this.addr, align 8
  %call_ = getelementptr inbounds %"class.proxygen::GenericFilter", ptr %this1, i32 0, i32 4
  %0 = load ptr, ptr %call_, align 8
  %1 = load ptr, ptr %writeBuf.addr, align 8
  %2 = load i64, ptr %streamId.addr, align 8
  call void @_ZN8proxygen12HTTPPriorityC2ERKS0_(ptr noundef nonnull align 8 dereferenceable(16) %agg.tmp, ptr noundef nonnull align 8 dereferenceable(16) %priority) #3
  %vtable = load ptr, ptr %0, align 8
  %vfn = getelementptr inbounds ptr, ptr %vtable, i64 41
  %3 = load ptr, ptr %vfn, align 8
  %call = invoke noundef i64 %3(ptr noundef nonnull align 8 dereferenceable(8) %0, ptr noundef nonnull align 8 dereferenceable(72) %1, i64 noundef %2, ptr noundef %agg.tmp)
          to label %invoke.cont unwind label %lpad

invoke.cont:                                      ; preds = %entry
  call void @_ZN8proxygen12HTTPPriorityD2Ev(ptr noundef nonnull align 8 dereferenceable(16) %agg.tmp) #3
  ret i64 %call

lpad:                                             ; preds = %entry
  %4 = landingpad { ptr, i32 }
          cleanup
  %5 = extractvalue { ptr, i32 } %4, 0
  store ptr %5, ptr %exn.slot, align 8
  %6 = extractvalue { ptr, i32 } %4, 1
  store i32 %6, ptr %ehselector.slot, align 4
  call void @_ZN8proxygen12HTTPPriorityD2Ev(ptr noundef nonnull align 8 dereferenceable(16) %agg.tmp) #3
  br label %eh.resume

eh.resume:                                        ; preds = %lpad
  %exn = load ptr, ptr %exn.slot, align 8
  %sel = load i32, ptr %ehselector.slot, align 4
  %lpad.val = insertvalue { ptr, i32 } poison, ptr %exn, 0
  %lpad.val2 = insertvalue { ptr, i32 } %lpad.val, i32 %sel, 1
  resume { ptr, i32 } %lpad.val2
}